target datalayout = "e-m:e-p270:32:32-p271:32:32-p272:64:64-i64:64-i128:128-f80:128-n8:16:32:64-S128"
target triple = "x86_64-pc-linux-gnu"

%struct.message = type { ptr, i32, i32, ptr, ptr, ptr, ptr, ptr, ptr, i64, i32, ptr, ptr, ptr, ptr, ptr, i8, i8, i8, i8, ptr }
%struct.text = type { ptr, ptr }

@.str.10 = private unnamed_addr constant [86 x i8] c"Internal email parser error: message is pointer is NULL when trying to get MIME type\0A\00", align 1
@.str.53 = private unnamed_addr constant [34 x i8] c"messageAddStr: invalid arguments\0A\00", align 1
@.str.54 = private unnamed_addr constant [2 x i8] c" \00", align 1
@.str.55 = private unnamed_addr constant [101 x i8] c"Internal email parser error: message 'body_last' pointer should not be NULL if 'body_first' is set.\0A\00", align 1
@.str.56 = private unnamed_addr constant [30 x i8] c"messageAddStr: out of memory\0A\00", align 1

; Function Attrs: nounwind uwtable
define i32 @messageGetMimeType(ptr noundef %0) #0 {
  %2 = alloca i32, align 4
  %3 = alloca ptr, align 8
  store ptr %0, ptr %3, align 8
  %4 = load ptr, ptr %3, align 8
  %5 = icmp eq ptr %4, null
  br i1 %5, label %6, label %7

6:                                                ; preds = %1
  call void (ptr, ...) @cli_errmsg(ptr noundef @.str.10)
  store i32 0, ptr %2, align 4
  br label %11

7:                                                ; preds = %1
  %8 = load ptr, ptr %3, align 8
  %9 = getelementptr inbounds %struct.message, ptr %8, i32 0, i32 1
  %10 = load i32, ptr %9, align 8
  store i32 %10, ptr %2, align 4
  br label %11

11:                                               ; preds = %7, %6
  %12 = load i32, ptr %2, align 4
  ret i32 %12
}

; Function Attrs: nounwind uwtable
define i32 @messageAddStr(ptr noundef %0, ptr noundef %1) #0 {
  %3 = alloca i32, align 4
  %4 = alloca ptr, align 8
  %5 = alloca ptr, align 8
  %6 = alloca ptr, align 8
  %7 = alloca i32, align 4
  %8 = alloca ptr, align 8
  store ptr %0, ptr %4, align 8
  store ptr %1, ptr %5, align 8
  store ptr null, ptr %6, align 8
  %9 = load ptr, ptr %4, align 8
  %10 = icmp eq ptr %9, null
  br i1 %10, label %11, label %12

11:                                               ; preds = %2
  call void (ptr, ...) @cli_errmsg(ptr noundef @.str.53)
  store i32 -1, ptr %3, align 4
  br label %217

12:                                               ; preds = %2
  %13 = load ptr, ptr %5, align 8
  %14 = icmp ne ptr %13, null
  br i1 %14, label %15, label %56

15:                                               ; preds = %12
  %16 = load ptr, ptr %5, align 8
  %17 = load i8, ptr %16, align 1
  %18 = sext i8 %17 to i32
  %19 = icmp eq i32 %18, 0
  br i1 %19, label %20, label %21

20:                                               ; preds = %15
  store ptr null, ptr %5, align 8
  br label %55

21:                                               ; preds = %15
  store i32 1, ptr %7, align 4
  %22 = load ptr, ptr %5, align 8
  store ptr %22, ptr %8, align 8
  br label %23

23:                                               ; preds = %47, %21
  %24 = load ptr, ptr %8, align 8
  %25 = load i8, ptr %24, align 1
  %26 = icmp ne i8 %25, 0
  br i1 %26, label %27, label %50

27:                                               ; preds = %23
  %28 = load ptr, ptr %8, align 8
  %29 = load i8, ptr %28, align 1
  %30 = sext i8 %29 to i32
  %31 = and i32 %30, 128
  %32 = icmp ne i32 %31, 0
  br i1 %32, label %45, label %33

33:                                               ; preds = %27
  %34 = call ptr @__ctype_b_loc() #12
  %35 = load ptr, ptr %34, align 8
  %36 = load ptr, ptr %8, align 8
  %37 = load i8, ptr %36, align 1
  %38 = sext i8 %37 to i32
  %39 = sext i32 %38 to i64
  %40 = getelementptr inbounds i16, ptr %35, i64 %39
  %41 = load i16, ptr %40, align 2
  %42 = zext i16 %41 to i32
  %43 = and i32 %42, 8192
  %44 = icmp ne i32 %43, 0
  br i1 %44, label %46, label %45

45:                                               ; preds = %33, %27
  store i32 0, ptr %7, align 4
  br label %50

46:                                               ; preds = %33
  br label %47

47:                                               ; preds = %46
  %48 = load ptr, ptr %8, align 8
  %49 = getelementptr inbounds i8, ptr %48, i32 1
  store ptr %49, ptr %8, align 8
  br label %23

50:                                               ; preds = %45, %23
  %51 = load i32, ptr %7, align 4
  %52 = icmp ne i32 %51, 0
  br i1 %52, label %53, label %54

53:                                               ; preds = %50
  store ptr @.str.54, ptr %5, align 8
  br label %54

54:                                               ; preds = %53, %50
  br label %55

55:                                               ; preds = %54, %20
  br label %56

56:                                               ; preds = %55, %12
  %57 = load ptr, ptr %4, align 8
  %58 = getelementptr inbounds %struct.message, ptr %57, i32 0, i32 6
  %59 = load ptr, ptr %58, align 8
  %60 = icmp eq ptr %59, null
  br i1 %60, label %61, label %67

61:                                               ; preds = %56
  %62 = call noalias ptr @malloc(i64 noundef 16) #14
  %63 = load ptr, ptr %4, align 8
  %64 = getelementptr inbounds %struct.message, ptr %63, i32 0, i32 6
  store ptr %62, ptr %64, align 8
  %65 = load ptr, ptr %4, align 8
  %66 = getelementptr inbounds %struct.message, ptr %65, i32 0, i32 7
  store ptr %62, ptr %66, align 8
  br label %151

67:                                               ; preds = %56
  %68 = load ptr, ptr %4, align 8
  %69 = getelementptr inbounds %struct.message, ptr %68, i32 0, i32 7
  %70 = load ptr, ptr %69, align 8
  %71 = icmp eq ptr %70, null
  br i1 %71, label %72, label %73

72:                                               ; preds = %67
  call void (ptr, ...) @cli_errmsg(ptr noundef @.str.55)
  br label %150

73:                                               ; preds = %67
  %74 = load ptr, ptr %5, align 8
  %75 = icmp eq ptr %74, null
  br i1 %75, label %76, label %89

76:                                               ; preds = %73
  %77 = load ptr, ptr %4, align 8
  %78 = getelementptr inbounds %struct.message, ptr %77, i32 0, i32 7
  %79 = load ptr, ptr %78, align 8
  %80 = getelementptr inbounds %struct.text, ptr %79, i32 0, i32 0
  %81 = load ptr, ptr %80, align 8
  %82 = icmp eq ptr %81, null
  br i1 %82, label %83, label %89

83:                                               ; preds = %76
  %84 = load ptr, ptr %4, align 8
  %85 = call i32 @messageGetMimeType(ptr noundef %84)
  %86 = icmp ne i32 %85, 6
  br i1 %86, label %87, label %88

87:                                               ; preds = %83
  store i32 1, ptr %3, align 4
  br label %217

88:                                               ; preds = %83
  br label %89

89:                                               ; preds = %88, %76, %73
  %90 = call noalias ptr @malloc(i64 noundef 16) #14
  %91 = load ptr, ptr %4, align 8
  %92 = getelementptr inbounds %struct.message, ptr %91, i32 0, i32 7
  %93 = load ptr, ptr %92, align 8
  %94 = getelementptr inbounds %struct.text, ptr %93, i32 0, i32 1
  store ptr %90, ptr %94, align 8
  %95 = load ptr, ptr %4, align 8
  %96 = getelementptr inbounds %struct.message, ptr %95, i32 0, i32 7
  %97 = load ptr, ptr %96, align 8
  %98 = getelementptr inbounds %struct.text, ptr %97, i32 0, i32 1
  %99 = load ptr, ptr %98, align 8
  %100 = icmp eq ptr %99, null
  br i1 %100, label %101, label %116

101:                                              ; preds = %89
  %102 = load ptr, ptr %4, align 8
  call void @messageDedup(ptr noundef %102)
  %103 = call noalias ptr @malloc(i64 noundef 16) #14
  %104 = load ptr, ptr %4, align 8
  %105 = getelementptr inbounds %struct.message, ptr %104, i32 0, i32 7
  %106 = load ptr, ptr %105, align 8
  %107 = getelementptr inbounds %struct.text, ptr %106, i32 0, i32 1
  store ptr %103, ptr %107, align 8
  %108 = load ptr, ptr %4, align 8
  %109 = getelementptr inbounds %struct.message, ptr %108, i32 0, i32 7
  %110 = load ptr, ptr %109, align 8
  %111 = getelementptr inbounds %struct.text, ptr %110, i32 0, i32 1
  %112 = load ptr, ptr %111, align 8
  %113 = icmp eq ptr %112, null
  br i1 %113, label %114, label %115

114:                                              ; preds = %101
  call void (ptr, ...) @cli_errmsg(ptr noundef @.str.56)
  store i32 -1, ptr %3, align 4
  br label %217

115:                                              ; preds = %101
  br label %116

116:                                              ; preds = %115, %89
  %117 = load ptr, ptr %5, align 8
  %118 = icmp ne ptr %117, null
  br i1 %118, label %119, label %142

119:                                              ; preds = %116
  %120 = load ptr, ptr %4, align 8
  %121 = getelementptr inbounds %struct.message, ptr %120, i32 0, i32 7
  %122 = load ptr, ptr %121, align 8
  %123 = getelementptr inbounds %struct.text, ptr %122, i32 0, i32 0
  %124 = load ptr, ptr %123, align 8
  %125 = icmp ne ptr %124, null
  br i1 %125, label %126, label %142

126:                                              ; preds = %119
  %127 = load ptr, ptr %5, align 8
  %128 = load ptr, ptr %4, align 8
  %129 = getelementptr inbounds %struct.message, ptr %128, i32 0, i32 7
  %130 = load ptr, ptr %129, align 8
  %131 = getelementptr inbounds %struct.text, ptr %130, i32 0, i32 0
  %132 = load ptr, ptr %131, align 8
  %133 = call ptr @lineGetData(ptr noundef %132)
  %134 = call i32 @strcmp(ptr noundef %127, ptr noundef %133) #13
  %135 = icmp eq i32 %134, 0
  br i1 %135, label %136, label %142

136:                                              ; preds = %126
  %137 = load ptr, ptr %4, align 8
  %138 = getelementptr inbounds %struct.message, ptr %137, i32 0, i32 7
  %139 = load ptr, ptr %138, align 8
  %140 = getelementptr inbounds %struct.text, ptr %139, i32 0, i32 0
  %141 = load ptr, ptr %140, align 8
  store ptr %141, ptr %6, align 8
  br label %142

142:                                              ; preds = %136, %126, %119, %116
  %143 = load ptr, ptr %4, align 8
  %144 = getelementptr inbounds %struct.message, ptr %143, i32 0, i32 7
  %145 = load ptr, ptr %144, align 8
  %146 = getelementptr inbounds %struct.text, ptr %145, i32 0, i32 1
  %147 = load ptr, ptr %146, align 8
  %148 = load ptr, ptr %4, align 8
  %149 = getelementptr inbounds %struct.message, ptr %148, i32 0, i32 7
  store ptr %147, ptr %149, align 8
  br label %150

150:                                              ; preds = %142, %72
  br label %151

151:                                              ; preds = %150, %61
  %152 = load ptr, ptr %4, align 8
  %153 = getelementptr inbounds %struct.message, ptr %152, i32 0, i32 7
  %154 = load ptr, ptr %153, align 8
  %155 = icmp eq ptr %154, null
  br i1 %155, label %156, label %157

156:                                              ; preds = %151
  call void (ptr, ...) @cli_errmsg(ptr noundef @.str.56)
  store i32 -1, ptr %3, align 4
  br label %217

157:                                              ; preds = %151
  %158 = load ptr, ptr %4, align 8
  %159 = getelementptr inbounds %struct.message, ptr %158, i32 0, i32 7
  %160 = load ptr, ptr %159, align 8
  %161 = getelementptr inbounds %struct.text, ptr %160, i32 0, i32 1
  store ptr null, ptr %161, align 8
  %162 = load ptr, ptr %5, align 8
  %163 = icmp ne ptr %162, null
  br i1 %163, label %164, label %211

164:                                              ; preds = %157
  %165 = load ptr, ptr %5, align 8
  %166 = load i8, ptr %165, align 1
  %167 = sext i8 %166 to i32
  %168 = icmp ne i32 %167, 0
  br i1 %168, label %169, label %211

169:                                              ; preds = %164
  %170 = load ptr, ptr %6, align 8
  %171 = icmp ne ptr %170, null
  br i1 %171, label %172, label %179

172:                                              ; preds = %169
  %173 = load ptr, ptr %6, align 8
  %174 = call ptr @lineLink(ptr noundef %173)
  %175 = load ptr, ptr %4, align 8
  %176 = getelementptr inbounds %struct.message, ptr %175, i32 0, i32 7
  %177 = load ptr, ptr %176, align 8
  %178 = getelementptr inbounds %struct.text, ptr %177, i32 0, i32 0
  store ptr %174, ptr %178, align 8
  br label %210

179:                                              ; preds = %169
  %180 = load ptr, ptr %5, align 8
  %181 = call ptr @lineCreate(ptr noundef %180)
  %182 = load ptr, ptr %4, align 8
  %183 = getelementptr inbounds %struct.message, ptr %182, i32 0, i32 7
  %184 = load ptr, ptr %183, align 8
  %185 = getelementptr inbounds %struct.text, ptr %184, i32 0, i32 0
  store ptr %181, ptr %185, align 8
  %186 = load ptr, ptr %4, align 8
  %187 = getelementptr inbounds %struct.message, ptr %186, i32 0, i32 7
  %188 = load ptr, ptr %187, align 8
  %189 = getelementptr inbounds %struct.text, ptr %188, i32 0, i32 0
  %190 = load ptr, ptr %189, align 8
  %191 = icmp eq ptr %190, null
  br i1 %191, label %192, label %208

192:                                              ; preds = %179
  %193 = load ptr, ptr %4, align 8
  call void @messageDedup(ptr noundef %193)
  %194 = load ptr, ptr %5, align 8
  %195 = call ptr @lineCreate(ptr noundef %194)
  %196 = load ptr, ptr %4, align 8
  %197 = getelementptr inbounds %struct.message, ptr %196, i32 0, i32 7
  %198 = load ptr, ptr %197, align 8
  %199 = getelementptr inbounds %struct.text, ptr %198, i32 0, i32 0
  store ptr %195, ptr %199, align 8
  %200 = load ptr, ptr %4, align 8
  %201 = getelementptr inbounds %struct.message, ptr %200, i32 0, i32 7
  %202 = load ptr, ptr %201, align 8
  %203 = getelementptr inbounds %struct.text, ptr %202, i32 0, i32 0
  %204 = load ptr, ptr %203, align 8
  %205 = icmp eq ptr %204, null
  br i1 %205, label %206, label %207

206:                                              ; preds = %192
  call void (ptr, ...) @cli_errmsg(ptr noundef @.str.56)
  store i32 -1, ptr %3, align 4
  br label %217

207:                                              ; preds = %192
  br label %208

208:                                              ; preds = %207, %179
  %209 = load ptr, ptr %4, align 8
  call void @messageIsEncoding(ptr noundef %209)
  br label %210

210:                                              ; preds = %208, %172
  br label %216

211:                                              ; preds = %164, %157
  %212 = load ptr, ptr %4, align 8
  %213 = getelementptr inbounds %struct.message, ptr %212, i32 0, i32 7
  %214 = load ptr, ptr %213, align 8
  %215 = getelementptr inbounds %struct.text, ptr %214, i32 0, i32 0
  store ptr null, ptr %215, align 8
  br label %216

216:                                              ; preds = %211, %210
  store i32 1, ptr %3, align 4
  br label %217

217:                                              ; preds = %216, %206, %156, %114, %87, %11
  %218 = load i32, ptr %3, align 4
  ret i32 %218
}