; Function Attrs: nounwind uwtable
define noundef i32 @messageAddStr(ptr noundef %0, ptr noundef %1) local_unnamed_addr #2 {
  %3 = icmp eq ptr %0, null
  br i1 %3, label %4, label %5

4:                                                ; preds = %2
  tail call void (ptr, ...) @cli_errmsg(ptr noundef nonnull @.str.53) #21
  br label %98

5:                                                ; preds = %2
  %.not = icmp eq ptr %1, null
  br i1 %.not, label %._crit_edge, label %6

6:                                                ; preds = %5
  %7 = load i8, ptr %1, align 1
  %8 = icmp eq i8 %7, 0
  br i1 %8, label %._crit_edge, label %.preheader

.preheader:                                       ; preds = %6
  %or.cond65 = icmp sgt i8 %7, 0
  br i1 %or.cond65, label %.lr.ph, label %._crit_edge

.lr.ph:                                           ; preds = %.preheader
  %9 = tail call ptr @__ctype_b_loc() #22
  %10 = load ptr, ptr %9, align 8
  br label %14

11:                                               ; preds = %14
  %12 = getelementptr inbounds i8, ptr %.066, i64 1
  %13 = load i8, ptr %12, align 1
  %.fr = freeze i8 %13
  %or.cond = icmp sgt i8 %.fr, 0
  br i1 %or.cond, label %14, label %._crit_edge.loopexit

14:                                               ; preds = %.lr.ph, %11
  %15 = phi i8 [ %7, %.lr.ph ], [ %.fr, %11 ]
  %.066 = phi ptr [ %1, %.lr.ph ], [ %12, %11 ]
  %16 = zext nneg i8 %15 to i64
  %17 = getelementptr inbounds i16, ptr %10, i64 %16
  %18 = load i16, ptr %17, align 2
  %19 = and i16 %18, 8192
  %.not57 = icmp eq i16 %19, 0
  br i1 %.not57, label %._crit_edge, label %11

._crit_edge.loopexit:                             ; preds = %11
  %20 = icmp eq i8 %.fr, 0
  %spec.select = select i1 %20, ptr @.str.54, ptr %1
  br label %._crit_edge

._crit_edge:                                      ; preds = %14, %._crit_edge.loopexit, %.preheader, %6, %5
  %.046 = phi ptr [ null, %5 ], [ null, %6 ], [ %1, %.preheader ], [ %spec.select, %._crit_edge.loopexit ], [ %1, %14 ]
  %21 = getelementptr inbounds i8, ptr %0, i64 40
  %22 = load ptr, ptr %21, align 8
  %23 = icmp eq ptr %22, null
  br i1 %23, label %24, label %27

24:                                               ; preds = %._crit_edge
  %25 = tail call noalias dereferenceable_or_null(16) ptr @malloc(i64 noundef 16) #24
  store ptr %25, ptr %21, align 8
  %26 = getelementptr inbounds i8, ptr %0, i64 48
  store ptr %25, ptr %26, align 8
  br label %69

27:                                               ; preds = %._crit_edge
  %28 = getelementptr inbounds i8, ptr %0, i64 48
  %29 = load ptr, ptr %28, align 8
  %30 = icmp eq ptr %29, null
  br i1 %30, label %31, label %32

31:                                               ; preds = %27
  tail call void (ptr, ...) @cli_errmsg(ptr noundef nonnull @.str.55) #21
  %.pre69 = load ptr, ptr %28, align 8
  br label %69

32:                                               ; preds = %27
  %33 = icmp eq ptr %.046, null
  br i1 %33, label %34, label %39

34:                                               ; preds = %32
  %35 = load ptr, ptr %29, align 8
  %36 = icmp eq ptr %35, null
  br i1 %36, label %messageGetMimeType.exit, label %39

messageGetMimeType.exit:                          ; preds = %34
  %37 = getelementptr inbounds i8, ptr %0, i64 8
  %38 = load i32, ptr %37, align 8
  %.not59 = icmp eq i32 %38, 6
  br i1 %.not59, label %39, label %98

39:                                               ; preds = %messageGetMimeType.exit, %34, %32
  %40 = tail call noalias dereferenceable_or_null(16) ptr @malloc(i64 noundef 16) #24
  %41 = getelementptr inbounds i8, ptr %29, i64 8
  store ptr %40, ptr %41, align 8
  %42 = load ptr, ptr %28, align 8
  %43 = getelementptr inbounds i8, ptr %42, i64 8
  %44 = load ptr, ptr %43, align 8
  %45 = icmp eq ptr %44, null
  br i1 %45, label %46, label %55

46:                                               ; preds = %39
  tail call fastcc void @messageDedup(ptr noundef nonnull %0)
  %47 = tail call noalias dereferenceable_or_null(16) ptr @malloc(i64 noundef 16) #24
  %48 = load ptr, ptr %28, align 8
  %49 = getelementptr inbounds i8, ptr %48, i64 8
  store ptr %47, ptr %49, align 8
  %50 = load ptr, ptr %28, align 8
  %51 = getelementptr inbounds i8, ptr %50, i64 8
  %52 = load ptr, ptr %51, align 8
  %53 = icmp eq ptr %52, null
  br i1 %53, label %54, label %55

54:                                               ; preds = %46
  tail call void (ptr, ...) @cli_errmsg(ptr noundef nonnull @.str.56) #21
  br label %98

55:                                               ; preds = %46, %39
  %56 = phi ptr [ %50, %46 ], [ %42, %39 ]
  br i1 %33, label %65, label %57

57:                                               ; preds = %55
  %58 = load ptr, ptr %56, align 8
  %.not61 = icmp eq ptr %58, null
  br i1 %.not61, label %65, label %59

59:                                               ; preds = %57
  %60 = tail call ptr @lineGetData(ptr noundef nonnull %58) #21
  %61 = tail call i32 @strcmp(ptr noundef nonnull dereferenceable(1) %.046, ptr noundef nonnull dereferenceable(1) %60) #23
  %62 = icmp eq i32 %61, 0
  %.pre = load ptr, ptr %28, align 8
  br i1 %62, label %63, label %65

63:                                               ; preds = %59
  %64 = load ptr, ptr %.pre, align 8
  br label %65

65:                                               ; preds = %63, %59, %57, %55
  %66 = phi ptr [ %.pre, %63 ], [ %.pre, %59 ], [ %56, %57 ], [ %56, %55 ]
  %.045 = phi ptr [ %64, %63 ], [ null, %59 ], [ null, %57 ], [ null, %55 ]
  %67 = getelementptr inbounds i8, ptr %66, i64 8
  %68 = load ptr, ptr %67, align 8
  store ptr %68, ptr %28, align 8
  br label %69

69:                                               ; preds = %31, %65, %24
  %70 = phi ptr [ %25, %24 ], [ %.pre69, %31 ], [ %68, %65 ]
  %.1 = phi ptr [ null, %24 ], [ null, %31 ], [ %.045, %65 ]
  %71 = getelementptr inbounds i8, ptr %0, i64 48
  %72 = icmp eq ptr %70, null
  br i1 %72, label %73, label %74

73:                                               ; preds = %69
  tail call void (ptr, ...) @cli_errmsg(ptr noundef nonnull @.str.56) #21
  br label %98

74:                                               ; preds = %69
  %75 = getelementptr inbounds i8, ptr %70, i64 8
  store ptr null, ptr %75, align 8
  %.not62 = icmp eq ptr %.046, null
  br i1 %.not62, label %96, label %76

76:                                               ; preds = %74
  %77 = load i8, ptr %.046, align 1
  %.not63 = icmp eq i8 %77, 0
  br i1 %.not63, label %96, label %78

78:                                               ; preds = %76
  %.not64 = icmp eq ptr %.1, null
  br i1 %.not64, label %82, label %79

79:                                               ; preds = %78
  %80 = tail call ptr @lineLink(ptr noundef nonnull %.1) #21
  %81 = load ptr, ptr %71, align 8
  store ptr %80, ptr %81, align 8
  br label %98

82:                                               ; preds = %78
  %83 = tail call ptr @lineCreate(ptr noundef nonnull %.046) #21
  %84 = load ptr, ptr %71, align 8
  store ptr %83, ptr %84, align 8
  %85 = load ptr, ptr %71, align 8
  %86 = load ptr, ptr %85, align 8
  %87 = icmp eq ptr %86, null
  br i1 %87, label %88, label %95

88:                                               ; preds = %82
  tail call fastcc void @messageDedup(ptr noundef nonnull %0)
  %89 = tail call ptr @lineCreate(ptr noundef nonnull %.046) #21
  %90 = load ptr, ptr %71, align 8
  store ptr %89, ptr %90, align 8
  %91 = load ptr, ptr %71, align 8
  %92 = load ptr, ptr %91, align 8
  %93 = icmp eq ptr %92, null
  br i1 %93, label %94, label %95

94:                                               ; preds = %88
  tail call void (ptr, ...) @cli_errmsg(ptr noundef nonnull @.str.56) #21
  br label %98

95:                                               ; preds = %88, %82
  tail call fastcc void @messageIsEncoding(ptr noundef nonnull %0)
  br label %98

96:                                               ; preds = %76, %74
  %97 = load ptr, ptr %71, align 8
  store ptr null, ptr %97, align 8
  br label %98

98:                                               ; preds = %96, %95, %79, %messageGetMimeType.exit, %94, %73, %54, %4
  %.047 = phi i32 [ -1, %4 ], [ -1, %73 ], [ -1, %94 ], [ -1, %54 ], [ 1, %messageGetMimeType.exit ], [ 1, %79 ], [ 1, %95 ], [ 1, %96 ]
  ret i32 %.047
}